; Function Attrs: nounwind uwtable
define noundef zeroext i1 @lv_fragment_manager_pop(ptr noundef %0) local_unnamed_addr #0 {
  %.not.i = icmp eq ptr %0, null
  br i1 %.not.i, label %.preheader.i, label %2

.preheader.i:                                     ; preds = %1, %.preheader.i
  br label %.preheader.i

2:                                                ; preds = %1
  %3 = getelementptr inbounds nuw i8, ptr %0, i64 32
  %4 = tail call ptr @lv_ll_get_tail(ptr noundef nonnull %3) #3
  %.not7.i = icmp eq ptr %4, null
  br i1 %.not7.i, label %lv_fragment_manager_get_top.exit.thread, label %lv_fragment_manager_get_top.exit

lv_fragment_manager_get_top.exit:                 ; preds = %2
  %5 = load ptr, ptr %4, align 8, !tbaa !24
  %6 = getelementptr inbounds nuw i8, ptr %5, i64 24
  %7 = load ptr, ptr %6, align 8, !tbaa !10
  %.not = icmp eq ptr %7, null
  br i1 %.not, label %lv_fragment_manager_get_top.exit.thread, label %8

8:                                                ; preds = %lv_fragment_manager_get_top.exit
  tail call void @lv_fragment_manager_remove(ptr noundef nonnull %0, ptr noundef nonnull %7)
  br label %lv_fragment_manager_get_top.exit.thread

lv_fragment_manager_get_top.exit.thread:          ; preds = %2, %lv_fragment_manager_get_top.exit, %8
  %9 = phi i1 [ false, %lv_fragment_manager_get_top.exit ], [ true, %8 ], [ false, %2 ]
  ret i1 %9
}